; Function Attrs: mustprogress uwtable
define hidden void @_ZN6region10push_scopeEv(ptr noundef nonnull align 8 dereferenceable(40) %this) local_unnamed_addr #3 align 2 personality ptr @__gxx_personality_v0 {
entry:
  %0 = load ptr, ptr %this, align 8
  %m_curr_ptr = getelementptr inbounds nuw i8, ptr %this, i64 8
  %1 = load ptr, ptr %m_curr_ptr, align 8
  %add.ptr.i.i = getelementptr inbounds nuw i8, ptr %1, i64 24
  %m_curr_end_ptr.i.i = getelementptr inbounds nuw i8, ptr %this, i64 16
  %2 = load ptr, ptr %m_curr_end_ptr.i.i, align 8
  %cmp.i.i = icmp ult ptr %add.ptr.i.i, %2
  br i1 %cmp.i.i, label %_ZnwmR6region.exit, label %if.else.i.i

if.else.i.i:                                      ; preds = %entry
  %m_free_pages.i.i.i = getelementptr inbounds nuw i8, ptr %this, i64 24
  %call.i.i.i = tail call noundef ptr @_Z21allocate_default_pagePcRS_(ptr noundef %0, ptr noundef nonnull align 8 dereferenceable(8) %m_free_pages.i.i.i)
  store ptr %call.i.i.i, ptr %this, align 8
  %add.ptr.i.i.i.i = getelementptr inbounds nuw i8, ptr %call.i.i.i, i64 8184
  store ptr %add.ptr.i.i.i.i, ptr %m_curr_end_ptr.i.i, align 8
  %add.ptr10.i.i = getelementptr inbounds nuw i8, ptr %call.i.i.i, i64 24
  br label %_ZnwmR6region.exit

_ZnwmR6region.exit:                               ; preds = %entry, %if.else.i.i
  %add.ptr.i.i.sink = phi ptr [ %add.ptr10.i.i, %if.else.i.i ], [ %add.ptr.i.i, %entry ]
  %retval.0.i.i = phi ptr [ %call.i.i.i, %if.else.i.i ], [ %1, %entry ]
  %3 = ptrtoint ptr %add.ptr.i.i.sink to i64
  %and.i.i = and i64 %3, 7
  %cmp3.not.i.i = icmp eq i64 %and.i.i, 0
  %add8.i.i = select i1 %cmp3.not.i.i, i64 0, i64 8
  %shr9.i.i = add i64 %add8.i.i, %3
  %storemerge.in = and i64 %shr9.i.i, -8
  %storemerge = inttoptr i64 %storemerge.in to ptr
  store ptr %storemerge, ptr %m_curr_ptr, align 8
  %m_mark = getelementptr inbounds nuw i8, ptr %this, i64 32
  %4 = load ptr, ptr %m_mark, align 8
  store ptr %0, ptr %retval.0.i.i, align 8
  %m_curr_ptr.i = getelementptr inbounds nuw i8, ptr %retval.0.i.i, i64 8
  store ptr %1, ptr %m_curr_ptr.i, align 8
  %m_prev_mark.i = getelementptr inbounds nuw i8, ptr %retval.0.i.i, i64 16
  store ptr %4, ptr %m_prev_mark.i, align 8
  store ptr %retval.0.i.i, ptr %m_mark, align 8
  ret void
}